target datalayout = "e-m:e-p270:32:32-p271:32:32-p272:64:64-i64:64-i128:128-f80:128-n8:16:32:64-S128"
target triple = "x86_64-pc-linux-gnu"

%struct.Vec_Int_t_ = type { i32, i32, ptr }
%struct.Vec_Ptr_t_ = type { i32, i32, ptr }
%struct.Abc_Ntk_t_ = type { i32, i32, ptr, ptr, ptr, ptr, ptr, ptr, ptr, ptr, ptr, ptr, ptr, [11 x i32], i32, i32, i32, i32, ptr, i32, ptr, ptr, i32, i32, i32, double, i32, %struct.Vec_Int_t_, ptr, ptr, ptr, ptr, ptr, float, i32, ptr, ptr, ptr, ptr, ptr, ptr, ptr, ptr, ptr, ptr, ptr, ptr, ptr, ptr, ptr, ptr, ptr, ptr, ptr, ptr, ptr }
%struct.Aig_Man_t_ = type { ptr, ptr, ptr, ptr, ptr, ptr, ptr, %struct.Aig_Obj_t_, i32, i32, i32, i32, i32, i32, [7 x i32], i32, ptr, i32, ptr, i32, ptr, i32, i32, i32, ptr, i32, i32, i32, i32, i32, ptr, ptr, i32, ptr, ptr, i32, ptr, ptr, i32, i32, i32, ptr, ptr, ptr, ptr, ptr, ptr, ptr, ptr, ptr, ptr, ptr, ptr, ptr, ptr, i32, ptr, ptr, ptr, ptr, i32, i64, i64, i64, ptr, ptr }
%struct.Aig_Obj_t_ = type { %union.anon, ptr, ptr, i64, i32, i32, %union.anon.0 }
%union.anon = type { ptr }
%union.anon.0 = type { ptr }
%struct.Abc_Cex_t_ = type { i32, i32, i32, i32, i32, [0 x i32] }
%struct.Pdr_Par_t_ = type { i32, i32, i32, i32, i32, i32, i32, i32, i32, i32, i32, i32, i32, i32, i32, i32, i32, i32, i32, i32, i32, i32, i32, i32, i32, i32, i32, i32, i32, i32, i32, i32, i32, i32, i32, i32, i32, i32, ptr, ptr, i64, ptr, ptr }
%struct.timespec = type { i64, i64 }

@.str.25 = private unnamed_addr constant [5 x i8] c"Time\00", align 1
@.str.32 = private unnamed_addr constant [5 x i8] c"%s =\00", align 1
@.str.33 = private unnamed_addr constant [11 x i8] c"%9.2f sec\0A\00", align 1
@.str.64 = private unnamed_addr constant [19 x i8] c"Property proved.  \00", align 1
@.str.65 = private unnamed_addr constant [52 x i8] c"Output %d of miter \22%s\22 was asserted in frame %d.  \00", align 1
@.str.66 = private unnamed_addr constant [22 x i8] c"Property UNDECIDED.  \00", align 1
@.str.67 = private unnamed_addr constant [41 x i8] c"Converting network into AIG has failed.\0A\00", align 1
@.str.85 = private unnamed_addr constant [71 x i8] c"Properties:  All = %d. Proved = %d. Disproved = %d. Undecided = %d.   \00", align 1
@.str.86 = private unnamed_addr constant [52 x i8] c"Abc_NtkDarPdr(): Counter-example is not available.\0A\00", align 1
@.str.87 = private unnamed_addr constant [59 x i8] c"Abc_NtkDarPdr(): Counter-example verification has FAILED.\0A\00", align 1

; Function Attrs: nounwind uwtable
define internal ptr @Vec_PtrEntry(ptr noundef %0, i32 noundef %1) #0 {
  %3 = alloca ptr, align 8
  %4 = alloca i32, align 4
  store ptr %0, ptr %3, align 8
  store i32 %1, ptr %4, align 4
  %5 = load ptr, ptr %3, align 8
  %6 = getelementptr inbounds %struct.Vec_Ptr_t_, ptr %5, i32 0, i32 2
  %7 = load ptr, ptr %6, align 8
  %8 = load i32, ptr %4, align 4
  %9 = sext i32 %8 to i64
  %10 = getelementptr inbounds ptr, ptr %7, i64 %9
  %11 = load ptr, ptr %10, align 8
  ret ptr %11
}

; Function Attrs: nounwind uwtable
define internal i32 @Vec_PtrSize(ptr noundef %0) #0 {
  %2 = alloca ptr, align 8
  store ptr %0, ptr %2, align 8
  %3 = load ptr, ptr %2, align 8
  %4 = getelementptr inbounds %struct.Vec_Ptr_t_, ptr %3, i32 0, i32 1
  %5 = load i32, ptr %4, align 4
  ret i32 %5
}

; Function Attrs: nounwind uwtable
define internal void @Vec_PtrFree(ptr noundef %0) #0 {
  %2 = alloca ptr, align 8
  store ptr %0, ptr %2, align 8
  %3 = load ptr, ptr %2, align 8
  %4 = getelementptr inbounds %struct.Vec_Ptr_t_, ptr %3, i32 0, i32 2
  %5 = load ptr, ptr %4, align 8
  %6 = icmp ne ptr %5, null
  br i1 %6, label %7, label %13

7:                                                ; preds = %1
  %8 = load ptr, ptr %2, align 8
  %9 = getelementptr inbounds %struct.Vec_Ptr_t_, ptr %8, i32 0, i32 2
  %10 = load ptr, ptr %9, align 8
  call void @free(ptr noundef %10) #10
  %11 = load ptr, ptr %2, align 8
  %12 = getelementptr inbounds %struct.Vec_Ptr_t_, ptr %11, i32 0, i32 2
  store ptr null, ptr %12, align 8
  br label %14

13:                                               ; preds = %1
  br label %14

14:                                               ; preds = %13, %7
  %15 = load ptr, ptr %2, align 8
  %16 = icmp ne ptr %15, null
  br i1 %16, label %17, label %19

17:                                               ; preds = %14
  %18 = load ptr, ptr %2, align 8
  call void @free(ptr noundef %18) #10
  store ptr null, ptr %2, align 8
  br label %20

19:                                               ; preds = %14
  br label %20

20:                                               ; preds = %19, %17
  ret void
}

; Function Attrs: nounwind uwtable
define internal void @Vec_PtrFreeData(ptr noundef %0) #0 {
  %2 = alloca ptr, align 8
  %3 = alloca ptr, align 8
  %4 = alloca i32, align 4
  store ptr %0, ptr %2, align 8
  %5 = load ptr, ptr %2, align 8
  %6 = icmp eq ptr %5, null
  br i1 %6, label %7, label %8

7:                                                ; preds = %1
  br label %39

8:                                                ; preds = %1
  store i32 0, ptr %4, align 4
  br label %9

9:                                                ; preds = %36, %8
  %10 = load i32, ptr %4, align 4
  %11 = load ptr, ptr %2, align 8
  %12 = call i32 @Vec_PtrSize(ptr noundef %11)
  %13 = icmp slt i32 %10, %12
  br i1 %13, label %14, label %18

14:                                               ; preds = %9
  %15 = load ptr, ptr %2, align 8
  %16 = load i32, ptr %4, align 4
  %17 = call ptr @Vec_PtrEntry(ptr noundef %15, i32 noundef %16)
  store ptr %17, ptr %3, align 8
  br label %18

18:                                               ; preds = %14, %9
  %19 = phi i1 [ false, %9 ], [ true, %14 ]
  br i1 %19, label %20, label %39

20:                                               ; preds = %18
  %21 = load ptr, ptr %3, align 8
  %22 = inttoptr i64 1 to ptr
  %23 = icmp ne ptr %21, %22
  br i1 %23, label %24, label %35

24:                                               ; preds = %20
  %25 = load ptr, ptr %3, align 8
  %26 = inttoptr i64 2 to ptr
  %27 = icmp ne ptr %25, %26
  br i1 %27, label %28, label %35

28:                                               ; preds = %24
  %29 = load ptr, ptr %3, align 8
  %30 = icmp ne ptr %29, null
  br i1 %30, label %31, label %33

31:                                               ; preds = %28
  %32 = load ptr, ptr %3, align 8
  call void @free(ptr noundef %32) #10
  store ptr null, ptr %3, align 8
  br label %34

33:                                               ; preds = %28
  br label %34

34:                                               ; preds = %33, %31
  br label %35

35:                                               ; preds = %34, %24, %20
  br label %36

36:                                               ; preds = %35
  %37 = load i32, ptr %4, align 4
  %38 = add nsw i32 %37, 1
  store i32 %38, ptr %4, align 4
  br label %9, !llvm.loop !96

39:                                               ; preds = %18, %7
  ret void
}

; Function Attrs: nounwind uwtable
define internal void @Vec_PtrFreeFree(ptr noundef %0) #0 {
  %2 = alloca ptr, align 8
  store ptr %0, ptr %2, align 8
  %3 = load ptr, ptr %2, align 8
  %4 = icmp eq ptr %3, null
  br i1 %4, label %5, label %6

5:                                                ; preds = %1
  br label %9

6:                                                ; preds = %1
  %7 = load ptr, ptr %2, align 8
  call void @Vec_PtrFreeData(ptr noundef %7)
  %8 = load ptr, ptr %2, align 8
  call void @Vec_PtrFree(ptr noundef %8)
  br label %9

9:                                                ; preds = %6, %5
  ret void
}

; Function Attrs: nounwind uwtable
define internal i32 @Saig_ManPoNum(ptr noundef %0) #0 {
  %2 = alloca ptr, align 8
  store ptr %0, ptr %2, align 8
  %3 = load ptr, ptr %2, align 8
  %4 = getelementptr inbounds %struct.Aig_Man_t_, ptr %3, i32 0, i32 10
  %5 = load i32, ptr %4, align 8
  ret i32 %5
}

; Function Attrs: nounwind uwtable
define internal i64 @Abc_Clock() #0 {
  %1 = alloca i64, align 8
  %2 = alloca %struct.timespec, align 8
  %3 = alloca i64, align 8
  %4 = call i32 @clock_gettime(i32 noundef 1, ptr noundef %2) #10
  %5 = icmp slt i32 %4, 0
  br i1 %5, label %6, label %7

6:                                                ; preds = %0
  store i64 -1, ptr %1, align 8
  br label %18

7:                                                ; preds = %0
  %8 = getelementptr inbounds %struct.timespec, ptr %2, i32 0, i32 0
  %9 = load i64, ptr %8, align 8
  %10 = mul nsw i64 %9, 1000000
  store i64 %10, ptr %3, align 8
  %11 = getelementptr inbounds %struct.timespec, ptr %2, i32 0, i32 1
  %12 = load i64, ptr %11, align 8
  %13 = mul nsw i64 %12, 1000000
  %14 = sdiv i64 %13, 1000000000
  %15 = load i64, ptr %3, align 8
  %16 = add nsw i64 %15, %14
  store i64 %16, ptr %3, align 8
  %17 = load i64, ptr %3, align 8
  store i64 %17, ptr %1, align 8
  br label %18

18:                                               ; preds = %7, %6
  %19 = load i64, ptr %1, align 8
  ret i64 %19
}

; Function Attrs: nounwind uwtable
define i32 @Abc_NtkDarPdr(ptr noundef %0, ptr noundef %1) #0 {
  %3 = alloca i32, align 4
  %4 = alloca ptr, align 8
  %5 = alloca ptr, align 8
  %6 = alloca i32, align 4
  %7 = alloca i64, align 8
  %8 = alloca ptr, align 8
  store ptr %0, ptr %4, align 8
  store ptr %1, ptr %5, align 8
  store i32 -1, ptr %6, align 4
  %9 = call i64 @Abc_Clock()
  store i64 %9, ptr %7, align 8
  %10 = load ptr, ptr %4, align 8
  %11 = call ptr @Abc_NtkToDar(ptr noundef %10, i32 noundef 0, i32 noundef 1)
  store ptr %11, ptr %8, align 8
  %12 = load ptr, ptr %8, align 8
  %13 = icmp eq ptr %12, null
  br i1 %13, label %14, label %15

14:                                               ; preds = %2
  call void (i32, ptr, ...) @Abc_Print(i32 noundef 1, ptr noundef @.str.67)
  store i32 -1, ptr %3, align 4
  br label %141

15:                                               ; preds = %2
  %16 = load ptr, ptr %8, align 8
  %17 = load ptr, ptr %5, align 8
  %18 = call i32 @Pdr_ManSolve(ptr noundef %16, ptr noundef %17)
  store i32 %18, ptr %6, align 4
  %19 = load ptr, ptr %8, align 8
  %20 = call i32 @Saig_ManPoNum(ptr noundef %19)
  %21 = load ptr, ptr %5, align 8
  %22 = getelementptr inbounds %struct.Pdr_Par_t_, ptr %21, i32 0, i32 35
  %23 = load i32, ptr %22, align 4
  %24 = sub nsw i32 %20, %23
  %25 = load ptr, ptr %5, align 8
  %26 = getelementptr inbounds %struct.Pdr_Par_t_, ptr %25, i32 0, i32 33
  %27 = load i32, ptr %26, align 4
  %28 = sub nsw i32 %24, %27
  %29 = load ptr, ptr %5, align 8
  %30 = getelementptr inbounds %struct.Pdr_Par_t_, ptr %29, i32 0, i32 34
  store i32 %28, ptr %30, align 8
  %31 = load ptr, ptr %5, align 8
  %32 = getelementptr inbounds %struct.Pdr_Par_t_, ptr %31, i32 0, i32 28
  %33 = load i32, ptr %32, align 8
  %34 = icmp ne i32 %33, 0
  br i1 %34, label %103, label %35

35:                                               ; preds = %15
  %36 = load ptr, ptr %5, align 8
  %37 = getelementptr inbounds %struct.Pdr_Par_t_, ptr %36, i32 0, i32 29
  %38 = load i32, ptr %37, align 4
  %39 = icmp ne i32 %38, 0
  br i1 %39, label %40, label %52

40:                                               ; preds = %35
  %41 = load ptr, ptr %8, align 8
  %42 = call i32 @Saig_ManPoNum(ptr noundef %41)
  %43 = load ptr, ptr %5, align 8
  %44 = getelementptr inbounds %struct.Pdr_Par_t_, ptr %43, i32 0, i32 35
  %45 = load i32, ptr %44, align 4
  %46 = load ptr, ptr %5, align 8
  %47 = getelementptr inbounds %struct.Pdr_Par_t_, ptr %46, i32 0, i32 33
  %48 = load i32, ptr %47, align 4
  %49 = load ptr, ptr %5, align 8
  %50 = getelementptr inbounds %struct.Pdr_Par_t_, ptr %49, i32 0, i32 34
  %51 = load i32, ptr %50, align 8
  call void (i32, ptr, ...) @Abc_Print(i32 noundef 1, ptr noundef @.str.85, i32 noundef %42, i32 noundef %45, i32 noundef %48, i32 noundef %51)
  br label %96

52:                                               ; preds = %35
  %53 = load i32, ptr %6, align 4
  %54 = icmp eq i32 %53, 1
  br i1 %54, label %55, label %56

55:                                               ; preds = %52
  call void (i32, ptr, ...) @Abc_Print(i32 noundef 1, ptr noundef @.str.64)
  br label %95

56:                                               ; preds = %52
  %57 = load i32, ptr %6, align 4
  %58 = icmp eq i32 %57, 0
  br i1 %58, label %59, label %88

59:                                               ; preds = %56
  %60 = load ptr, ptr %8, align 8
  %61 = getelementptr inbounds %struct.Aig_Man_t_, ptr %60, i32 0, i32 51
  %62 = load ptr, ptr %61, align 8
  %63 = icmp eq ptr %62, null
  br i1 %63, label %64, label %65

64:                                               ; preds = %59
  call void (i32, ptr, ...) @Abc_Print(i32 noundef 1, ptr noundef @.str.86)
  br label %87

65:                                               ; preds = %59
  %66 = load ptr, ptr %8, align 8
  %67 = getelementptr inbounds %struct.Aig_Man_t_, ptr %66, i32 0, i32 51
  %68 = load ptr, ptr %67, align 8
  %69 = getelementptr inbounds %struct.Abc_Cex_t_, ptr %68, i32 0, i32 0
  %70 = load i32, ptr %69, align 4
  %71 = load ptr, ptr %4, align 8
  %72 = getelementptr inbounds %struct.Abc_Ntk_t_, ptr %71, i32 0, i32 2
  %73 = load ptr, ptr %72, align 8
  %74 = load ptr, ptr %8, align 8
  %75 = getelementptr inbounds %struct.Aig_Man_t_, ptr %74, i32 0, i32 51
  %76 = load ptr, ptr %75, align 8
  %77 = getelementptr inbounds %struct.Abc_Cex_t_, ptr %76, i32 0, i32 1
  %78 = load i32, ptr %77, align 4
  call void (i32, ptr, ...) @Abc_Print(i32 noundef 1, ptr noundef @.str.65, i32 noundef %70, ptr noundef %73, i32 noundef %78)
  %79 = load ptr, ptr %8, align 8
  %80 = load ptr, ptr %8, align 8
  %81 = getelementptr inbounds %struct.Aig_Man_t_, ptr %80, i32 0, i32 51
  %82 = load ptr, ptr %81, align 8
  %83 = call i32 @Saig_ManVerifyCex(ptr noundef %79, ptr noundef %82)
  %84 = icmp ne i32 %83, 0
  br i1 %84, label %86, label %85

85:                                               ; preds = %65
  call void (i32, ptr, ...) @Abc_Print(i32 noundef 1, ptr noundef @.str.87)
  br label %86

86:                                               ; preds = %85, %65
  br label %87

87:                                               ; preds = %86, %64
  br label %94

88:                                               ; preds = %56
  %89 = load i32, ptr %6, align 4
  %90 = icmp eq i32 %89, -1
  br i1 %90, label %91, label %92

91:                                               ; preds = %88
  call void (i32, ptr, ...) @Abc_Print(i32 noundef 1, ptr noundef @.str.66)
  br label %93

92:                                               ; preds = %88
  br label %93

93:                                               ; preds = %92, %91
  br label %94

94:                                               ; preds = %93, %87
  br label %95

95:                                               ; preds = %94, %55
  br label %96

96:                                               ; preds = %95, %40
  call void (i32, ptr, ...) @Abc_Print(i32 noundef 1, ptr noundef @.str.32, ptr noundef @.str.25)
  %97 = call i64 @Abc_Clock()
  %98 = load i64, ptr %7, align 8
  %99 = sub nsw i64 %97, %98
  %100 = sitofp i64 %99 to double
  %101 = fmul double 1.000000e+00, %100
  %102 = fdiv double %101, 1.000000e+06
  call void (i32, ptr, ...) @Abc_Print(i32 noundef 1, ptr noundef @.str.33, double noundef %102)
  br label %103

103:                                              ; preds = %96, %15
  %104 = load ptr, ptr %4, align 8
  %105 = getelementptr inbounds %struct.Abc_Ntk_t_, ptr %104, i32 0, i32 38
  %106 = load ptr, ptr %105, align 8
  %107 = icmp ne ptr %106, null
  br i1 %107, label %108, label %114

108:                                              ; preds = %103
  %109 = load ptr, ptr %4, align 8
  %110 = getelementptr inbounds %struct.Abc_Ntk_t_, ptr %109, i32 0, i32 38
  %111 = load ptr, ptr %110, align 8
  call void @free(ptr noundef %111) #10
  %112 = load ptr, ptr %4, align 8
  %113 = getelementptr inbounds %struct.Abc_Ntk_t_, ptr %112, i32 0, i32 38
  store ptr null, ptr %113, align 8
  br label %115

114:                                              ; preds = %103
  br label %115

115:                                              ; preds = %114, %108
  %116 = load ptr, ptr %8, align 8
  %117 = getelementptr inbounds %struct.Aig_Man_t_, ptr %116, i32 0, i32 51
  %118 = load ptr, ptr %117, align 8
  %119 = load ptr, ptr %4, align 8
  %120 = getelementptr inbounds %struct.Abc_Ntk_t_, ptr %119, i32 0, i32 38
  store ptr %118, ptr %120, align 8
  %121 = load ptr, ptr %8, align 8
  %122 = getelementptr inbounds %struct.Aig_Man_t_, ptr %121, i32 0, i32 51
  store ptr null, ptr %122, align 8
  %123 = load ptr, ptr %4, align 8
  %124 = getelementptr inbounds %struct.Abc_Ntk_t_, ptr %123, i32 0, i32 39
  %125 = load ptr, ptr %124, align 8
  %126 = icmp ne ptr %125, null
  br i1 %126, label %127, label %131

127:                                              ; preds = %115
  %128 = load ptr, ptr %4, align 8
  %129 = getelementptr inbounds %struct.Abc_Ntk_t_, ptr %128, i32 0, i32 39
  %130 = load ptr, ptr %129, align 8
  call void @Vec_PtrFreeFree(ptr noundef %130)
  br label %131

131:                                              ; preds = %127, %115
  %132 = load ptr, ptr %8, align 8
  %133 = getelementptr inbounds %struct.Aig_Man_t_, ptr %132, i32 0, i32 52
  %134 = load ptr, ptr %133, align 8
  %135 = load ptr, ptr %4, align 8
  %136 = getelementptr inbounds %struct.Abc_Ntk_t_, ptr %135, i32 0, i32 39
  store ptr %134, ptr %136, align 8
  %137 = load ptr, ptr %8, align 8
  %138 = getelementptr inbounds %struct.Aig_Man_t_, ptr %137, i32 0, i32 52
  store ptr null, ptr %138, align 8
  %139 = load ptr, ptr %8, align 8
  call void @Aig_ManStop(ptr noundef %139)
  %140 = load i32, ptr %6, align 4
  store i32 %140, ptr %3, align 4
  br label %141

141:                                              ; preds = %131, %14
  %142 = load i32, ptr %3, align 4
  ret i32 %142
}