; Function Attrs: nounwind uwtable
define i32 @Abc_NtkDarPdr(ptr noundef %0, ptr noundef %1) local_unnamed_addr #1 {
  %3 = alloca %struct.timespec, align 8
  %4 = alloca %struct.timespec, align 8
  call void @llvm.lifetime.start.p0(i64 16, ptr nonnull %4)
  %5 = call i32 @clock_gettime(i32 noundef 1, ptr noundef nonnull %4) #19
  %6 = icmp slt i32 %5, 0
  br i1 %6, label %Abc_Clock.exit, label %7

7:                                                ; preds = %2
  %8 = load i64, ptr %4, align 8
  %.neg49 = mul i64 %8, -1000000
  %9 = getelementptr inbounds nuw i8, ptr %4, i64 8
  %10 = load i64, ptr %9, align 8
  %.neg = sdiv i64 %10, -1000
  %.neg50 = add i64 %.neg, %.neg49
  br label %Abc_Clock.exit

Abc_Clock.exit:                                   ; preds = %2, %7
  %.0.i.neg = phi i64 [ %.neg50, %7 ], [ 1, %2 ]
  call void @llvm.lifetime.end.p0(i64 16, ptr nonnull %4)
  %11 = call ptr @Abc_NtkToDar(ptr noundef %0, i32 noundef 0, i32 noundef 1)
  %12 = icmp eq ptr %11, null
  br i1 %12, label %13, label %14

13:                                               ; preds = %Abc_Clock.exit
  call void (i32, ptr, ...) @Abc_Print(i32 poison, ptr noundef nonnull @.str.67)
  br label %86

14:                                               ; preds = %Abc_Clock.exit
  %15 = call i32 @Pdr_ManSolve(ptr noundef nonnull %11, ptr noundef %1) #19
  %16 = getelementptr i8, ptr %11, i64 112
  %.val46 = load i32, ptr %16, align 8
  %17 = getelementptr inbounds nuw i8, ptr %1, i64 140
  %18 = load i32, ptr %17, align 4
  %19 = getelementptr inbounds nuw i8, ptr %1, i64 132
  %20 = load i32, ptr %19, align 4
  %21 = add i32 %18, %20
  %22 = sub i32 %.val46, %21
  %23 = getelementptr inbounds nuw i8, ptr %1, i64 136
  store i32 %22, ptr %23, align 8
  %24 = getelementptr inbounds nuw i8, ptr %1, i64 112
  %25 = load i32, ptr %24, align 8
  %.not = icmp eq i32 %25, 0
  br i1 %.not, label %26, label %60

26:                                               ; preds = %14
  %27 = getelementptr inbounds nuw i8, ptr %1, i64 116
  %28 = load i32, ptr %27, align 4
  %.not42 = icmp eq i32 %28, 0
  br i1 %.not42, label %30, label %29

29:                                               ; preds = %26
  %.val = load i32, ptr %16, align 8
  call void (i32, ptr, ...) @Abc_Print(i32 poison, ptr noundef nonnull @.str.85, i32 noundef %.val, i32 noundef %18, i32 noundef %20, i32 noundef %22)
  br label %47

30:                                               ; preds = %26
  switch i32 %15, label %47 [
    i32 1, label %31
    i32 0, label %32
    i32 -1, label %46
  ]

31:                                               ; preds = %30
  call void (i32, ptr, ...) @Abc_Print(i32 poison, ptr noundef nonnull @.str.64)
  br label %47

32:                                               ; preds = %30
  %33 = getelementptr inbounds nuw i8, ptr %11, i64 408
  %34 = load ptr, ptr %33, align 8
  %35 = icmp eq ptr %34, null
  br i1 %35, label %36, label %37

36:                                               ; preds = %32
  call void (i32, ptr, ...) @Abc_Print(i32 poison, ptr noundef nonnull @.str.86)
  br label %47

37:                                               ; preds = %32
  %38 = load i32, ptr %34, align 4
  %39 = getelementptr inbounds nuw i8, ptr %0, i64 8
  %40 = load ptr, ptr %39, align 8
  %41 = getelementptr inbounds nuw i8, ptr %34, i64 4
  %42 = load i32, ptr %41, align 4
  call void (i32, ptr, ...) @Abc_Print(i32 poison, ptr noundef nonnull @.str.65, i32 noundef %38, ptr noundef %40, i32 noundef %42)
  %43 = load ptr, ptr %33, align 8
  %44 = call i32 @Saig_ManVerifyCex(ptr noundef nonnull %11, ptr noundef %43) #19
  %.not43 = icmp eq i32 %44, 0
  br i1 %.not43, label %45, label %47

45:                                               ; preds = %37
  call void (i32, ptr, ...) @Abc_Print(i32 poison, ptr noundef nonnull @.str.87)
  br label %47

46:                                               ; preds = %30
  call void (i32, ptr, ...) @Abc_Print(i32 poison, ptr noundef nonnull @.str.66)
  br label %47

47:                                               ; preds = %30, %31, %46, %36, %45, %37, %29
  call void (i32, ptr, ...) @Abc_Print(i32 poison, ptr noundef nonnull @.str.32, ptr noundef nonnull @.str.25)
  call void @llvm.lifetime.start.p0(i64 16, ptr nonnull %3)
  %48 = call i32 @clock_gettime(i32 noundef 1, ptr noundef nonnull %3) #19
  %49 = icmp slt i32 %48, 0
  br i1 %49, label %Abc_Clock.exit48, label %50

50:                                               ; preds = %47
  %51 = load i64, ptr %3, align 8
  %52 = mul nsw i64 %51, 1000000
  %53 = getelementptr inbounds nuw i8, ptr %3, i64 8
  %54 = load i64, ptr %53, align 8
  %55 = sdiv i64 %54, 1000
  %56 = add nsw i64 %55, %52
  br label %Abc_Clock.exit48

Abc_Clock.exit48:                                 ; preds = %47, %50
  %.0.i47 = phi i64 [ %56, %50 ], [ -1, %47 ]
  call void @llvm.lifetime.end.p0(i64 16, ptr nonnull %3)
  %57 = add i64 %.0.i47, %.0.i.neg
  %58 = sitofp i64 %57 to double
  %59 = fdiv double %58, 1.000000e+06
  call void (i32, ptr, ...) @Abc_Print(i32 poison, ptr noundef nonnull @.str.33, double noundef %59)
  br label %60

60:                                               ; preds = %Abc_Clock.exit48, %14
  %61 = getelementptr inbounds nuw i8, ptr %0, i64 312
  %62 = load ptr, ptr %61, align 8
  %.not44 = icmp eq ptr %62, null
  br i1 %.not44, label %64, label %63

63:                                               ; preds = %60
  call void @free(ptr noundef nonnull %62) #19
  store ptr null, ptr %61, align 8
  br label %64

64:                                               ; preds = %60, %63
  %65 = getelementptr inbounds nuw i8, ptr %11, i64 408
  %66 = load ptr, ptr %65, align 8
  store ptr %66, ptr %61, align 8
  store ptr null, ptr %65, align 8
  %67 = getelementptr inbounds nuw i8, ptr %0, i64 320
  %68 = load ptr, ptr %67, align 8
  %.not45 = icmp eq ptr %68, null
  br i1 %.not45, label %83, label %69

69:                                               ; preds = %64
  %70 = getelementptr i8, ptr %68, i64 4
  %.val16.i.i = load i32, ptr %70, align 4
  %71 = icmp sgt i32 %.val16.i.i, 0
  br i1 %71, label %.lr.ph.i.i, label %Vec_PtrFreeData.exit.i

.lr.ph.i.i:                                       ; preds = %69
  %72 = getelementptr i8, ptr %68, i64 8
  br label %73

73:                                               ; preds = %77, %.lr.ph.i.i
  %.val19.i.i = phi i32 [ %.val16.i.i, %.lr.ph.i.i ], [ %.val.i.i, %77 ]
  %indvars.iv.i.i = phi i64 [ 0, %.lr.ph.i.i ], [ %indvars.iv.next.i.i, %77 ]
  %.val15.i.i = load ptr, ptr %72, align 8
  %74 = getelementptr inbounds nuw ptr, ptr %.val15.i.i, i64 %indvars.iv.i.i
  %75 = load ptr, ptr %74, align 8
  %switch.i.i = icmp ult ptr %75, inttoptr (i64 3 to ptr)
  br i1 %switch.i.i, label %77, label %76

76:                                               ; preds = %73
  call void @free(ptr noundef %75) #19
  %.val.pre.i.i = load i32, ptr %70, align 4
  br label %77

77:                                               ; preds = %76, %73
  %.val.i.i = phi i32 [ %.val19.i.i, %73 ], [ %.val.pre.i.i, %76 ]
  %indvars.iv.next.i.i = add nuw nsw i64 %indvars.iv.i.i, 1
  %78 = sext i32 %.val.i.i to i64
  %79 = icmp slt i64 %indvars.iv.next.i.i, %78
  br i1 %79, label %73, label %Vec_PtrFreeData.exit.i, !llvm.loop !91

Vec_PtrFreeData.exit.i:                           ; preds = %77, %69
  %80 = getelementptr inbounds nuw i8, ptr %68, i64 8
  %81 = load ptr, ptr %80, align 8
  %.not.i.i = icmp eq ptr %81, null
  br i1 %.not.i.i, label %Vec_PtrFreeFree.exit, label %82

82:                                               ; preds = %Vec_PtrFreeData.exit.i
  call void @free(ptr noundef nonnull %81) #19
  br label %Vec_PtrFreeFree.exit

Vec_PtrFreeFree.exit:                             ; preds = %Vec_PtrFreeData.exit.i, %82
  call void @free(ptr noundef nonnull %68) #19
  br label %83

83:                                               ; preds = %Vec_PtrFreeFree.exit, %64
  %84 = getelementptr inbounds nuw i8, ptr %11, i64 416
  %85 = load ptr, ptr %84, align 8
  store ptr %85, ptr %67, align 8
  store ptr null, ptr %84, align 8
  call void @Aig_ManStop(ptr noundef nonnull %11) #19
  br label %86

86:                                               ; preds = %83, %13
  %.0 = phi i32 [ -1, %13 ], [ %15, %83 ]
  ret i32 %.0
}